; ModuleID = 'probe5.232ef089577d744e-cgu.0'
source_filename = "probe5.232ef089577d744e-cgu.0"
target datalayout = "e-m:o-i64:64-i128:128-n32:64-S128"
target triple = "arm64-apple-macosx11.0.0"

; core::f64::<impl f64>::is_subnormal
; Function Attrs: inlinehint uwtable
define internal zeroext i1 @"_ZN4core3f6421_$LT$impl$u20$f64$GT$12is_subnormal17hd7b85c92478dbf43E"(double %self) unnamed_addr #0 {
start:
  %_2 = alloca i8, align 1
; call core::f64::<impl f64>::classify
  %0 = call i8 @"_ZN4core3f6421_$LT$impl$u20$f64$GT$8classify17h42a7c1da12cb8f96E"(double %self), !range !2
  store i8 %0, ptr %_2, align 1
  %1 = load i8, ptr %_2, align 1, !range !2, !noundef !3
  %_3 = zext i8 %1 to i64
  %_0 = icmp eq i64 %_3, 3
  ret i1 %_0
}

; probe5::probe
; Function Attrs: uwtable
define void @_ZN6probe55probe17h6d0fa74431ec83f2E() unnamed_addr #1 {
start:
; call core::f64::<impl f64>::is_subnormal
  %_1 = call zeroext i1 @"_ZN4core3f6421_$LT$impl$u20$f64$GT$12is_subnormal17hd7b85c92478dbf43E"(double 1.000000e+00)
  ret void
}

; core::f64::<impl f64>::classify
; Function Attrs: uwtable
declare i8 @"_ZN4core3f6421_$LT$impl$u20$f64$GT$8classify17h42a7c1da12cb8f96E"(double) unnamed_addr #1

attributes #0 = { inlinehint uwtable "frame-pointer"="non-leaf" "target-cpu"="apple-m1" }
attributes #1 = { uwtable "frame-pointer"="non-leaf" "target-cpu"="apple-m1" }

!llvm.module.flags = !{!0}
!llvm.ident = !{!1}

!0 = !{i32 8, !"PIC Level", i32 2}
!1 = !{!"rustc version 1.73.0-nightly (32303b219 2023-07-29)"}
!2 = !{i8 0, i8 5}
!3 = !{}
